target datalayout = "e-m:e-p270:32:32-p271:32:32-p272:64:64-i64:64-i128:128-f80:128-n8:16:32:64-S128"
target triple = "x86_64-pc-linux-gnu"

%struct.dt_lib_module_info_t = type { ptr, i32, ptr, i32, ptr }

@.str.58 = private unnamed_addr constant [15 x i8] c"dt-preset-name\00", align 1

; Function Attrs: nounwind uwtable
define internal void @_menuitem_activate_preset(ptr noundef %0, ptr noundef %1) #0 {
  %3 = alloca ptr, align 8
  %4 = alloca ptr, align 8
  store ptr %0, ptr %3, align 8, !tbaa !222
  store ptr %1, ptr %4, align 8, !tbaa !66
  %5 = load ptr, ptr %3, align 8, !tbaa !222
  %6 = call ptr @g_type_check_instance_cast(ptr noundef %5, i64 noundef 80)
  %7 = call ptr @g_object_get_data(ptr noundef %6, ptr noundef @.str.58)
  %8 = load ptr, ptr %4, align 8, !tbaa !66
  %9 = getelementptr inbounds nuw %struct.dt_lib_module_info_t, ptr %8, i32 0, i32 0
  %10 = load ptr, ptr %9, align 8, !tbaa !73
  %11 = load ptr, ptr %4, align 8, !tbaa !66
  %12 = getelementptr inbounds nuw %struct.dt_lib_module_info_t, ptr %11, i32 0, i32 1
  %13 = load i32, ptr %12, align 8, !tbaa !75
  %14 = call i32 @dt_lib_presets_apply(ptr noundef %7, ptr noundef %10, i32 noundef %13)
  ret void
}