; Function Attrs: nounwind uwtable
define internal void @_menuitem_activate_preset(ptr noundef %0, ptr noundef readonly captures(none) %1) #0 {
  %3 = tail call ptr @g_type_check_instance_cast(ptr noundef %0, i64 noundef 80) #19
  %4 = tail call ptr @g_object_get_data(ptr noundef %3, ptr noundef nonnull @.str.58) #19
  %5 = load ptr, ptr %1, align 8, !tbaa !65
  %6 = getelementptr inbounds nuw i8, ptr %1, i64 8
  %7 = load i32, ptr %6, align 8, !tbaa !68
  %8 = tail call i32 @dt_lib_presets_apply(ptr noundef %4, ptr noundef %5, i32 noundef %7)
  ret void
}